target datalayout = "e-m:e-p270:32:32-p271:32:32-p272:64:64-i64:64-i128:128-f80:128-n8:16:32:64-S128"
target triple = "x86_64-pc-linux-gnu"

%struct.__loadu_si128 = type { <2 x i64> }
%struct.__storeu_si128 = type { <2 x i64> }

; Function Attrs: alwaysinline nounwind uwtable
define internal void @_mm_storeu_si128(ptr noundef %0, <2 x i64> noundef %1) #3 {
  %3 = alloca ptr, align 8
  %4 = alloca <2 x i64>, align 16
  store ptr %0, ptr %3, align 8, !tbaa !3
  store <2 x i64> %1, ptr %4, align 16, !tbaa !11
  %5 = load <2 x i64>, ptr %4, align 16, !tbaa !11
  %6 = load ptr, ptr %3, align 8, !tbaa !3
  %7 = getelementptr inbounds nuw %struct.__storeu_si128, ptr %6, i32 0, i32 0
  store <2 x i64> %5, ptr %7, align 1, !tbaa !11
  ret void
}

; Function Attrs: alwaysinline nounwind uwtable
define internal <2 x i64> @_mm_sub_epi8(<2 x i64> noundef %0, <2 x i64> noundef %1) #3 {
  %3 = alloca <2 x i64>, align 16
  %4 = alloca <2 x i64>, align 16
  store <2 x i64> %0, ptr %3, align 16, !tbaa !11
  store <2 x i64> %1, ptr %4, align 16, !tbaa !11
  %5 = load <2 x i64>, ptr %3, align 16, !tbaa !11
  %6 = bitcast <2 x i64> %5 to <16 x i8>
  %7 = load <2 x i64>, ptr %4, align 16, !tbaa !11
  %8 = bitcast <2 x i64> %7 to <16 x i8>
  %9 = sub <16 x i8> %6, %8
  %10 = bitcast <16 x i8> %9 to <2 x i64>
  ret <2 x i64> %10
}

; Function Attrs: alwaysinline nounwind uwtable
define internal <2 x i64> @_mm_loadu_si128(ptr noundef %0) #3 {
  %2 = alloca ptr, align 8
  store ptr %0, ptr %2, align 8, !tbaa !3
  %3 = load ptr, ptr %2, align 8, !tbaa !3
  %4 = getelementptr inbounds nuw %struct.__loadu_si128, ptr %3, i32 0, i32 0
  %5 = load <2 x i64>, ptr %4, align 1, !tbaa !11
  ret <2 x i64> %5
}

; Function Attrs: nounwind uwtable
define internal void @PredictLineLeft_SSE2(ptr noalias noundef %0, ptr noalias noundef %1, i32 noundef %2) #1 {
  %4 = alloca ptr, align 8
  %5 = alloca ptr, align 8
  %6 = alloca i32, align 4
  %7 = alloca i32, align 4
  %8 = alloca i32, align 4
  %9 = alloca <2 x i64>, align 16
  %10 = alloca <2 x i64>, align 16
  %11 = alloca <2 x i64>, align 16
  %12 = alloca <2 x i64>, align 16
  %13 = alloca <2 x i64>, align 16
  %14 = alloca <2 x i64>, align 16
  store ptr %0, ptr %4, align 8, !tbaa !7
  store ptr %1, ptr %5, align 8, !tbaa !7
  store i32 %2, ptr %6, align 4, !tbaa !9
  call void @llvm.lifetime.start.p0(i64 4, ptr %7) #6
  call void @llvm.lifetime.start.p0(i64 4, ptr %8) #6
  %15 = load i32, ptr %6, align 4, !tbaa !9
  %16 = and i32 %15, -32
  store i32 %16, ptr %8, align 4, !tbaa !9
  store i32 0, ptr %7, align 4, !tbaa !9
  br label %17

17:                                               ; preds = %66, %3
  %18 = load i32, ptr %7, align 4, !tbaa !9
  %19 = load i32, ptr %8, align 4, !tbaa !9
  %20 = icmp slt i32 %18, %19
  br i1 %20, label %21, label %69

21:                                               ; preds = %17
  call void @llvm.lifetime.start.p0(i64 16, ptr %9) #6
  %22 = load ptr, ptr %4, align 8, !tbaa !7
  %23 = load i32, ptr %7, align 4, !tbaa !9
  %24 = sext i32 %23 to i64
  %25 = getelementptr inbounds i8, ptr %22, i64 %24
  %26 = getelementptr inbounds i8, ptr %25, i64 0
  %27 = call <2 x i64> @_mm_loadu_si128(ptr noundef %26)
  store <2 x i64> %27, ptr %9, align 16, !tbaa !11
  call void @llvm.lifetime.start.p0(i64 16, ptr %10) #6
  %28 = load ptr, ptr %4, align 8, !tbaa !7
  %29 = load i32, ptr %7, align 4, !tbaa !9
  %30 = sext i32 %29 to i64
  %31 = getelementptr inbounds i8, ptr %28, i64 %30
  %32 = getelementptr inbounds i8, ptr %31, i64 0
  %33 = getelementptr inbounds i8, ptr %32, i64 -1
  %34 = call <2 x i64> @_mm_loadu_si128(ptr noundef %33)
  store <2 x i64> %34, ptr %10, align 16, !tbaa !11
  call void @llvm.lifetime.start.p0(i64 16, ptr %11) #6
  %35 = load ptr, ptr %4, align 8, !tbaa !7
  %36 = load i32, ptr %7, align 4, !tbaa !9
  %37 = sext i32 %36 to i64
  %38 = getelementptr inbounds i8, ptr %35, i64 %37
  %39 = getelementptr inbounds i8, ptr %38, i64 16
  %40 = call <2 x i64> @_mm_loadu_si128(ptr noundef %39)
  store <2 x i64> %40, ptr %11, align 16, !tbaa !11
  call void @llvm.lifetime.start.p0(i64 16, ptr %12) #6
  %41 = load ptr, ptr %4, align 8, !tbaa !7
  %42 = load i32, ptr %7, align 4, !tbaa !9
  %43 = sext i32 %42 to i64
  %44 = getelementptr inbounds i8, ptr %41, i64 %43
  %45 = getelementptr inbounds i8, ptr %44, i64 16
  %46 = getelementptr inbounds i8, ptr %45, i64 -1
  %47 = call <2 x i64> @_mm_loadu_si128(ptr noundef %46)
  store <2 x i64> %47, ptr %12, align 16, !tbaa !11
  call void @llvm.lifetime.start.p0(i64 16, ptr %13) #6
  %48 = load <2 x i64>, ptr %9, align 16, !tbaa !11
  %49 = load <2 x i64>, ptr %10, align 16, !tbaa !11
  %50 = call <2 x i64> @_mm_sub_epi8(<2 x i64> noundef %48, <2 x i64> noundef %49)
  store <2 x i64> %50, ptr %13, align 16, !tbaa !11
  call void @llvm.lifetime.start.p0(i64 16, ptr %14) #6
  %51 = load <2 x i64>, ptr %11, align 16, !tbaa !11
  %52 = load <2 x i64>, ptr %12, align 16, !tbaa !11
  %53 = call <2 x i64> @_mm_sub_epi8(<2 x i64> noundef %51, <2 x i64> noundef %52)
  store <2 x i64> %53, ptr %14, align 16, !tbaa !11
  %54 = load ptr, ptr %5, align 8, !tbaa !7
  %55 = load i32, ptr %7, align 4, !tbaa !9
  %56 = sext i32 %55 to i64
  %57 = getelementptr inbounds i8, ptr %54, i64 %56
  %58 = getelementptr inbounds i8, ptr %57, i64 0
  %59 = load <2 x i64>, ptr %13, align 16, !tbaa !11
  call void @_mm_storeu_si128(ptr noundef %58, <2 x i64> noundef %59)
  %60 = load ptr, ptr %5, align 8, !tbaa !7
  %61 = load i32, ptr %7, align 4, !tbaa !9
  %62 = sext i32 %61 to i64
  %63 = getelementptr inbounds i8, ptr %60, i64 %62
  %64 = getelementptr inbounds i8, ptr %63, i64 16
  %65 = load <2 x i64>, ptr %14, align 16, !tbaa !11
  call void @_mm_storeu_si128(ptr noundef %64, <2 x i64> noundef %65)
  call void @llvm.lifetime.end.p0(i64 16, ptr %14) #6
  call void @llvm.lifetime.end.p0(i64 16, ptr %13) #6
  call void @llvm.lifetime.end.p0(i64 16, ptr %12) #6
  call void @llvm.lifetime.end.p0(i64 16, ptr %11) #6
  call void @llvm.lifetime.end.p0(i64 16, ptr %10) #6
  call void @llvm.lifetime.end.p0(i64 16, ptr %9) #6
  br label %66

66:                                               ; preds = %21
  %67 = load i32, ptr %7, align 4, !tbaa !9
  %68 = add nsw i32 %67, 32
  store i32 %68, ptr %7, align 4, !tbaa !9
  br label %17, !llvm.loop !20

69:                                               ; preds = %17
  br label %70

70:                                               ; preds = %94, %69
  %71 = load i32, ptr %7, align 4, !tbaa !9
  %72 = load i32, ptr %6, align 4, !tbaa !9
  %73 = icmp slt i32 %71, %72
  br i1 %73, label %74, label %97

74:                                               ; preds = %70
  %75 = load ptr, ptr %4, align 8, !tbaa !7
  %76 = load i32, ptr %7, align 4, !tbaa !9
  %77 = sext i32 %76 to i64
  %78 = getelementptr inbounds i8, ptr %75, i64 %77
  %79 = load i8, ptr %78, align 1, !tbaa !11
  %80 = zext i8 %79 to i32
  %81 = load ptr, ptr %4, align 8, !tbaa !7
  %82 = load i32, ptr %7, align 4, !tbaa !9
  %83 = sub nsw i32 %82, 1
  %84 = sext i32 %83 to i64
  %85 = getelementptr inbounds i8, ptr %81, i64 %84
  %86 = load i8, ptr %85, align 1, !tbaa !11
  %87 = zext i8 %86 to i32
  %88 = sub nsw i32 %80, %87
  %89 = trunc i32 %88 to i8
  %90 = load ptr, ptr %5, align 8, !tbaa !7
  %91 = load i32, ptr %7, align 4, !tbaa !9
  %92 = sext i32 %91 to i64
  %93 = getelementptr inbounds i8, ptr %90, i64 %92
  store i8 %89, ptr %93, align 1, !tbaa !11
  br label %94

94:                                               ; preds = %74
  %95 = load i32, ptr %7, align 4, !tbaa !9
  %96 = add nsw i32 %95, 1
  store i32 %96, ptr %7, align 4, !tbaa !9
  br label %70, !llvm.loop !21

97:                                               ; preds = %70
  call void @llvm.lifetime.end.p0(i64 4, ptr %8) #6
  call void @llvm.lifetime.end.p0(i64 4, ptr %7) #6
  ret void
}

; Function Attrs: inlinehint nounwind uwtable
define internal void @DoHorizontalFilter_SSE2(ptr noalias noundef %0, i32 noundef %1, i32 noundef %2, i32 noundef %3, ptr noalias noundef %4) #5 {
  %6 = alloca ptr, align 8
  %7 = alloca i32, align 4
  %8 = alloca i32, align 4
  %9 = alloca i32, align 4
  %10 = alloca ptr, align 8
  %11 = alloca i32, align 4
  store ptr %0, ptr %6, align 8, !tbaa !7
  store i32 %1, ptr %7, align 4, !tbaa !9
  store i32 %2, ptr %8, align 4, !tbaa !9
  store i32 %3, ptr %9, align 4, !tbaa !9
  store ptr %4, ptr %10, align 8, !tbaa !7
  call void @llvm.lifetime.start.p0(i64 4, ptr %11) #6
  br label %12

12:                                               ; preds = %5
  br label %13

13:                                               ; preds = %12
  br label %14

14:                                               ; preds = %13
  %15 = load ptr, ptr %6, align 8, !tbaa !7
  %16 = getelementptr inbounds i8, ptr %15, i64 0
  %17 = load i8, ptr %16, align 1, !tbaa !11
  %18 = load ptr, ptr %10, align 8, !tbaa !7
  %19 = getelementptr inbounds i8, ptr %18, i64 0
  store i8 %17, ptr %19, align 1, !tbaa !11
  %20 = load ptr, ptr %6, align 8, !tbaa !7
  %21 = getelementptr inbounds i8, ptr %20, i64 1
  %22 = load ptr, ptr %10, align 8, !tbaa !7
  %23 = getelementptr inbounds i8, ptr %22, i64 1
  %24 = load i32, ptr %7, align 4, !tbaa !9
  %25 = sub nsw i32 %24, 1
  call void @PredictLineLeft_SSE2(ptr noundef %21, ptr noundef %23, i32 noundef %25)
  %26 = load i32, ptr %9, align 4, !tbaa !9
  %27 = load ptr, ptr %6, align 8, !tbaa !7
  %28 = sext i32 %26 to i64
  %29 = getelementptr inbounds i8, ptr %27, i64 %28
  store ptr %29, ptr %6, align 8, !tbaa !7
  %30 = load i32, ptr %9, align 4, !tbaa !9
  %31 = load ptr, ptr %10, align 8, !tbaa !7
  %32 = sext i32 %30 to i64
  %33 = getelementptr inbounds i8, ptr %31, i64 %32
  store ptr %33, ptr %10, align 8, !tbaa !7
  store i32 1, ptr %11, align 4, !tbaa !9
  br label %34

34:                                               ; preds = %68, %14
  %35 = load i32, ptr %11, align 4, !tbaa !9
  %36 = load i32, ptr %8, align 4, !tbaa !9
  %37 = icmp slt i32 %35, %36
  br i1 %37, label %38, label %71

38:                                               ; preds = %34
  %39 = load ptr, ptr %6, align 8, !tbaa !7
  %40 = getelementptr inbounds i8, ptr %39, i64 0
  %41 = load i8, ptr %40, align 1, !tbaa !11
  %42 = zext i8 %41 to i32
  %43 = load ptr, ptr %6, align 8, !tbaa !7
  %44 = load i32, ptr %9, align 4, !tbaa !9
  %45 = sub nsw i32 0, %44
  %46 = sext i32 %45 to i64
  %47 = getelementptr inbounds i8, ptr %43, i64 %46
  %48 = load i8, ptr %47, align 1, !tbaa !11
  %49 = zext i8 %48 to i32
  %50 = sub nsw i32 %42, %49
  %51 = trunc i32 %50 to i8
  %52 = load ptr, ptr %10, align 8, !tbaa !7
  %53 = getelementptr inbounds i8, ptr %52, i64 0
  store i8 %51, ptr %53, align 1, !tbaa !11
  %54 = load ptr, ptr %6, align 8, !tbaa !7
  %55 = getelementptr inbounds i8, ptr %54, i64 1
  %56 = load ptr, ptr %10, align 8, !tbaa !7
  %57 = getelementptr inbounds i8, ptr %56, i64 1
  %58 = load i32, ptr %7, align 4, !tbaa !9
  %59 = sub nsw i32 %58, 1
  call void @PredictLineLeft_SSE2(ptr noundef %55, ptr noundef %57, i32 noundef %59)
  %60 = load i32, ptr %9, align 4, !tbaa !9
  %61 = load ptr, ptr %6, align 8, !tbaa !7
  %62 = sext i32 %60 to i64
  %63 = getelementptr inbounds i8, ptr %61, i64 %62
  store ptr %63, ptr %6, align 8, !tbaa !7
  %64 = load i32, ptr %9, align 4, !tbaa !9
  %65 = load ptr, ptr %10, align 8, !tbaa !7
  %66 = sext i32 %64 to i64
  %67 = getelementptr inbounds i8, ptr %65, i64 %66
  store ptr %67, ptr %10, align 8, !tbaa !7
  br label %68

68:                                               ; preds = %38
  %69 = load i32, ptr %11, align 4, !tbaa !9
  %70 = add nsw i32 %69, 1
  store i32 %70, ptr %11, align 4, !tbaa !9
  br label %34, !llvm.loop !19

71:                                               ; preds = %34
  call void @llvm.lifetime.end.p0(i64 4, ptr %11) #6
  ret void
}

; Function Attrs: nounwind uwtable
define internal void @HorizontalFilter_SSE2(ptr noalias noundef %0, i32 noundef %1, i32 noundef %2, i32 noundef %3, ptr noalias noundef %4) #0 {
  %6 = alloca ptr, align 8
  %7 = alloca i32, align 4
  %8 = alloca i32, align 4
  %9 = alloca i32, align 4
  %10 = alloca ptr, align 8
  store ptr %0, ptr %6, align 8, !tbaa !7
  store i32 %1, ptr %7, align 4, !tbaa !9
  store i32 %2, ptr %8, align 4, !tbaa !9
  store i32 %3, ptr %9, align 4, !tbaa !9
  store ptr %4, ptr %10, align 8, !tbaa !7
  %11 = load ptr, ptr %6, align 8, !tbaa !7
  %12 = load i32, ptr %7, align 4, !tbaa !9
  %13 = load i32, ptr %8, align 4, !tbaa !9
  %14 = load i32, ptr %9, align 4, !tbaa !9
  %15 = load ptr, ptr %10, align 8, !tbaa !7
  call void @DoHorizontalFilter_SSE2(ptr noundef %11, i32 noundef %12, i32 noundef %13, i32 noundef %14, ptr noundef %15)
  ret void
}