; Function Attrs: nofree norecurse nosync nounwind memory(argmem: readwrite, inaccessiblemem: readwrite) uwtable
define internal void @HorizontalFilter_SSE2(ptr noalias noundef readonly captures(none) %0, i32 noundef %1, i32 noundef %2, i32 noundef %3, ptr noalias noundef writeonly captures(none) initializes((0, 1)) %4) #2 {
  tail call void @llvm.experimental.noalias.scope.decl(metadata !15)
  tail call void @llvm.experimental.noalias.scope.decl(metadata !18)
  %6 = load i8, ptr %0, align 1, !tbaa !7, !alias.scope !15, !noalias !18
  store i8 %6, ptr %4, align 1, !tbaa !7, !alias.scope !18, !noalias !15
  %7 = getelementptr inbounds nuw i8, ptr %0, i64 1
  %8 = getelementptr inbounds nuw i8, ptr %4, i64 1
  %9 = add nsw i32 %1, -1
  tail call void @llvm.experimental.noalias.scope.decl(metadata !20)
  tail call void @llvm.experimental.noalias.scope.decl(metadata !23)
  %10 = icmp sgt i32 %1, 32
  br i1 %10, label %.lr.ph.preheader.i.i, label %.preheader.i.i

.lr.ph.preheader.i.i:                             ; preds = %5
  %11 = and i32 %9, 2147483616
  %12 = zext nneg i32 %11 to i64
  br label %.lr.ph.i.i

.preheader.loopexit.i.i:                          ; preds = %.lr.ph.i.i
  %13 = trunc nuw nsw i64 %indvars.iv.next.i.i to i32
  br label %.preheader.i.i

.preheader.i.i:                                   ; preds = %.preheader.loopexit.i.i, %5
  %.0.lcssa.i.i = phi i32 [ 0, %5 ], [ %13, %.preheader.loopexit.i.i ]
  %14 = icmp slt i32 %.0.lcssa.i.i, %9
  br i1 %14, label %.lr.ph32.preheader.i.i, label %PredictLineLeft_SSE2.exit.i

.lr.ph32.preheader.i.i:                           ; preds = %.preheader.i.i
  %15 = zext nneg i32 %.0.lcssa.i.i to i64
  %wide.trip.count.i.i = zext i32 %9 to i64
  br label %.lr.ph32.i.i

.lr.ph.i.i:                                       ; preds = %.lr.ph.i.i, %.lr.ph.preheader.i.i
  %indvars.iv.i.i = phi i64 [ 0, %.lr.ph.preheader.i.i ], [ %indvars.iv.next.i.i, %.lr.ph.i.i ]
  %16 = getelementptr inbounds nuw i8, ptr %7, i64 %indvars.iv.i.i
  %17 = load <16 x i8>, ptr %16, align 1, !tbaa !7, !alias.scope !25, !noalias !26
  %18 = getelementptr inbounds i8, ptr %16, i64 -1
  %19 = load <16 x i8>, ptr %18, align 1, !tbaa !7, !alias.scope !25, !noalias !26
  %20 = getelementptr inbounds nuw i8, ptr %16, i64 16
  %21 = load <16 x i8>, ptr %20, align 1, !tbaa !7, !alias.scope !25, !noalias !26
  %22 = getelementptr inbounds nuw i8, ptr %16, i64 15
  %23 = load <16 x i8>, ptr %22, align 1, !tbaa !7, !alias.scope !25, !noalias !26
  %24 = sub <16 x i8> %17, %19
  %25 = sub <16 x i8> %21, %23
  %26 = getelementptr inbounds nuw i8, ptr %8, i64 %indvars.iv.i.i
  store <16 x i8> %24, ptr %26, align 1, !tbaa !7, !alias.scope !26, !noalias !25
  %27 = getelementptr inbounds nuw i8, ptr %26, i64 16
  store <16 x i8> %25, ptr %27, align 1, !tbaa !7, !alias.scope !26, !noalias !25
  %indvars.iv.next.i.i = add nuw nsw i64 %indvars.iv.i.i, 32
  %28 = icmp samesign ult i64 %indvars.iv.next.i.i, %12
  br i1 %28, label %.lr.ph.i.i, label %.preheader.loopexit.i.i, !llvm.loop !27

.lr.ph32.i.i:                                     ; preds = %.lr.ph32.i.i, %.lr.ph32.preheader.i.i
  %indvars.iv34.i.i = phi i64 [ %15, %.lr.ph32.preheader.i.i ], [ %indvars.iv.next35.i.i, %.lr.ph32.i.i ]
  %29 = getelementptr inbounds nuw i8, ptr %7, i64 %indvars.iv34.i.i
  %30 = load i8, ptr %29, align 1, !tbaa !7, !alias.scope !25, !noalias !26
  %31 = getelementptr i8, ptr %29, i64 -1
  %32 = load i8, ptr %31, align 1, !tbaa !7, !alias.scope !25, !noalias !26
  %33 = sub i8 %30, %32
  %34 = getelementptr inbounds nuw i8, ptr %8, i64 %indvars.iv34.i.i
  store i8 %33, ptr %34, align 1, !tbaa !7, !alias.scope !26, !noalias !25
  %indvars.iv.next35.i.i = add nuw nsw i64 %indvars.iv34.i.i, 1
  %exitcond.not.i.i = icmp eq i64 %indvars.iv.next35.i.i, %wide.trip.count.i.i
  br i1 %exitcond.not.i.i, label %PredictLineLeft_SSE2.exit.i, label %.lr.ph32.i.i, !llvm.loop !28

PredictLineLeft_SSE2.exit.i:                      ; preds = %.lr.ph32.i.i, %.preheader.i.i
  %35 = sext i32 %3 to i64
  %36 = icmp sgt i32 %2, 1
  br i1 %36, label %.lr.ph.i, label %DoHorizontalFilter_SSE2.exit

.lr.ph.i:                                         ; preds = %PredictLineLeft_SSE2.exit.i
  %37 = sub nsw i32 0, %3
  %38 = sext i32 %37 to i64
  %39 = and i32 %9, 2147483616
  %40 = zext nneg i32 %39 to i64
  %wide.trip.count.i28.i = zext i32 %9 to i64
  br i1 %10, label %.lr.ph.preheader.i33.us.i, label %.lr.ph.split.i

.lr.ph.preheader.i33.us.i:                        ; preds = %.lr.ph.i, %PredictLineLeft_SSE2.exit38.us.i
  %.041.us.i = phi i32 [ %69, %PredictLineLeft_SSE2.exit38.us.i ], [ 1, %.lr.ph.i ]
  %.pn2440.us.i = phi ptr [ %.022.us.i, %PredictLineLeft_SSE2.exit38.us.i ], [ %4, %.lr.ph.i ]
  %.pn39.us.i = phi ptr [ %.023.us.i, %PredictLineLeft_SSE2.exit38.us.i ], [ %0, %.lr.ph.i ]
  %.022.us.i = getelementptr inbounds i8, ptr %.pn2440.us.i, i64 %35
  %.023.us.i = getelementptr inbounds i8, ptr %.pn39.us.i, i64 %35
  %41 = load i8, ptr %.023.us.i, align 1, !tbaa !7, !alias.scope !15, !noalias !18
  %42 = getelementptr inbounds i8, ptr %.023.us.i, i64 %38
  %43 = load i8, ptr %42, align 1, !tbaa !7, !alias.scope !15, !noalias !18
  %44 = sub i8 %41, %43
  store i8 %44, ptr %.022.us.i, align 1, !tbaa !7, !alias.scope !18, !noalias !15
  %45 = getelementptr inbounds nuw i8, ptr %.023.us.i, i64 1
  %46 = getelementptr inbounds nuw i8, ptr %.022.us.i, i64 1
  tail call void @llvm.experimental.noalias.scope.decl(metadata !29)
  tail call void @llvm.experimental.noalias.scope.decl(metadata !32)
  br label %.lr.ph.i34.us.i

.lr.ph.i34.us.i:                                  ; preds = %.lr.ph.i34.us.i, %.lr.ph.preheader.i33.us.i
  %indvars.iv.i35.us.i = phi i64 [ 0, %.lr.ph.preheader.i33.us.i ], [ %indvars.iv.next.i36.us.i, %.lr.ph.i34.us.i ]
  %47 = getelementptr inbounds nuw i8, ptr %45, i64 %indvars.iv.i35.us.i
  %48 = load <16 x i8>, ptr %47, align 1, !tbaa !7, !alias.scope !34, !noalias !35
  %49 = getelementptr inbounds i8, ptr %47, i64 -1
  %50 = load <16 x i8>, ptr %49, align 1, !tbaa !7, !alias.scope !34, !noalias !35
  %51 = getelementptr inbounds nuw i8, ptr %47, i64 16
  %52 = load <16 x i8>, ptr %51, align 1, !tbaa !7, !alias.scope !34, !noalias !35
  %53 = getelementptr inbounds nuw i8, ptr %47, i64 15
  %54 = load <16 x i8>, ptr %53, align 1, !tbaa !7, !alias.scope !34, !noalias !35
  %55 = sub <16 x i8> %48, %50
  %56 = sub <16 x i8> %52, %54
  %57 = getelementptr inbounds nuw i8, ptr %46, i64 %indvars.iv.i35.us.i
  store <16 x i8> %55, ptr %57, align 1, !tbaa !7, !alias.scope !35, !noalias !34
  %58 = getelementptr inbounds nuw i8, ptr %57, i64 16
  store <16 x i8> %56, ptr %58, align 1, !tbaa !7, !alias.scope !35, !noalias !34
  %indvars.iv.next.i36.us.i = add nuw nsw i64 %indvars.iv.i35.us.i, 32
  %59 = icmp samesign ult i64 %indvars.iv.next.i36.us.i, %40
  br i1 %59, label %.lr.ph.i34.us.i, label %.preheader.loopexit.i37.us.i, !llvm.loop !27

.preheader.loopexit.i37.us.i:                     ; preds = %.lr.ph.i34.us.i
  %60 = trunc nuw nsw i64 %indvars.iv.next.i36.us.i to i32
  %61 = icmp sgt i32 %9, %60
  br i1 %61, label %.lr.ph32.preheader.i27.us.i, label %PredictLineLeft_SSE2.exit38.us.i

.lr.ph32.preheader.i27.us.i:                      ; preds = %.preheader.loopexit.i37.us.i
  %62 = and i64 %indvars.iv.next.i36.us.i, 4294967264
  br label %.lr.ph32.i29.us.i

.lr.ph32.i29.us.i:                                ; preds = %.lr.ph32.i29.us.i, %.lr.ph32.preheader.i27.us.i
  %indvars.iv34.i30.us.i = phi i64 [ %62, %.lr.ph32.preheader.i27.us.i ], [ %indvars.iv.next35.i31.us.i, %.lr.ph32.i29.us.i ]
  %63 = getelementptr inbounds nuw i8, ptr %45, i64 %indvars.iv34.i30.us.i
  %64 = load i8, ptr %63, align 1, !tbaa !7, !alias.scope !34, !noalias !35
  %65 = getelementptr i8, ptr %63, i64 -1
  %66 = load i8, ptr %65, align 1, !tbaa !7, !alias.scope !34, !noalias !35
  %67 = sub i8 %64, %66
  %68 = getelementptr inbounds nuw i8, ptr %46, i64 %indvars.iv34.i30.us.i
  store i8 %67, ptr %68, align 1, !tbaa !7, !alias.scope !35, !noalias !34
  %indvars.iv.next35.i31.us.i = add nuw nsw i64 %indvars.iv34.i30.us.i, 1
  %exitcond.not.i32.us.i = icmp eq i64 %indvars.iv.next35.i31.us.i, %wide.trip.count.i28.i
  br i1 %exitcond.not.i32.us.i, label %PredictLineLeft_SSE2.exit38.us.i, label %.lr.ph32.i29.us.i, !llvm.loop !28

PredictLineLeft_SSE2.exit38.us.i:                 ; preds = %.lr.ph32.i29.us.i, %.preheader.loopexit.i37.us.i
  %69 = add nuw nsw i32 %.041.us.i, 1
  %exitcond58.not.i = icmp eq i32 %69, %2
  br i1 %exitcond58.not.i, label %DoHorizontalFilter_SSE2.exit, label %.lr.ph.preheader.i33.us.i, !llvm.loop !36

.lr.ph.split.i:                                   ; preds = %.lr.ph.i
  %70 = icmp sgt i32 %1, 1
  br i1 %70, label %.preheader.i25.us42.i, label %.preheader.i25.i

.preheader.i25.us42.i:                            ; preds = %.lr.ph.split.i, %PredictLineLeft_SSE2.exit38.loopexit.us54.i
  %.041.us43.i = phi i32 [ %83, %PredictLineLeft_SSE2.exit38.loopexit.us54.i ], [ 1, %.lr.ph.split.i ]
  %.pn2440.us44.i = phi ptr [ %.022.us46.i, %PredictLineLeft_SSE2.exit38.loopexit.us54.i ], [ %4, %.lr.ph.split.i ]
  %.pn39.us45.i = phi ptr [ %.023.us47.i, %PredictLineLeft_SSE2.exit38.loopexit.us54.i ], [ %0, %.lr.ph.split.i ]
  %.022.us46.i = getelementptr inbounds i8, ptr %.pn2440.us44.i, i64 %35
  %.023.us47.i = getelementptr inbounds i8, ptr %.pn39.us45.i, i64 %35
  %71 = load i8, ptr %.023.us47.i, align 1, !tbaa !7, !alias.scope !15, !noalias !18
  %72 = getelementptr inbounds i8, ptr %.023.us47.i, i64 %38
  %73 = load i8, ptr %72, align 1, !tbaa !7, !alias.scope !15, !noalias !18
  %74 = sub i8 %71, %73
  store i8 %74, ptr %.022.us46.i, align 1, !tbaa !7, !alias.scope !18, !noalias !15
  %75 = getelementptr inbounds nuw i8, ptr %.023.us47.i, i64 1
  %76 = getelementptr inbounds nuw i8, ptr %.022.us46.i, i64 1
  tail call void @llvm.experimental.noalias.scope.decl(metadata !29)
  tail call void @llvm.experimental.noalias.scope.decl(metadata !32)
  br label %.lr.ph32.i29.us49.i

.lr.ph32.i29.us49.i:                              ; preds = %.lr.ph32.i29.us49.i, %.preheader.i25.us42.i
  %indvars.iv34.i30.us50.i = phi i64 [ 0, %.preheader.i25.us42.i ], [ %indvars.iv.next35.i31.us51.i, %.lr.ph32.i29.us49.i ]
  %77 = getelementptr inbounds nuw i8, ptr %75, i64 %indvars.iv34.i30.us50.i
  %78 = load i8, ptr %77, align 1, !tbaa !7, !alias.scope !34, !noalias !35
  %79 = getelementptr i8, ptr %77, i64 -1
  %80 = load i8, ptr %79, align 1, !tbaa !7, !alias.scope !34, !noalias !35
  %81 = sub i8 %78, %80
  %82 = getelementptr inbounds nuw i8, ptr %76, i64 %indvars.iv34.i30.us50.i
  store i8 %81, ptr %82, align 1, !tbaa !7, !alias.scope !35, !noalias !34
  %indvars.iv.next35.i31.us51.i = add nuw nsw i64 %indvars.iv34.i30.us50.i, 1
  %exitcond.not.i32.us52.i = icmp eq i64 %indvars.iv.next35.i31.us51.i, %wide.trip.count.i28.i
  br i1 %exitcond.not.i32.us52.i, label %PredictLineLeft_SSE2.exit38.loopexit.us54.i, label %.lr.ph32.i29.us49.i, !llvm.loop !28

PredictLineLeft_SSE2.exit38.loopexit.us54.i:      ; preds = %.lr.ph32.i29.us49.i
  %83 = add nuw nsw i32 %.041.us43.i, 1
  %exitcond57.not.i = icmp eq i32 %83, %2
  br i1 %exitcond57.not.i, label %DoHorizontalFilter_SSE2.exit, label %.preheader.i25.us42.i, !llvm.loop !36

.preheader.i25.i:                                 ; preds = %.lr.ph.split.i, %.preheader.i25.i
  %.041.i = phi i32 [ %88, %.preheader.i25.i ], [ 1, %.lr.ph.split.i ]
  %.pn2440.i = phi ptr [ %.022.i, %.preheader.i25.i ], [ %4, %.lr.ph.split.i ]
  %.pn39.i = phi ptr [ %.023.i, %.preheader.i25.i ], [ %0, %.lr.ph.split.i ]
  %.022.i = getelementptr inbounds i8, ptr %.pn2440.i, i64 %35
  %.023.i = getelementptr inbounds i8, ptr %.pn39.i, i64 %35
  %84 = load i8, ptr %.023.i, align 1, !tbaa !7, !alias.scope !15, !noalias !18
  %85 = getelementptr inbounds i8, ptr %.023.i, i64 %38
  %86 = load i8, ptr %85, align 1, !tbaa !7, !alias.scope !15, !noalias !18
  %87 = sub i8 %84, %86
  store i8 %87, ptr %.022.i, align 1, !tbaa !7, !alias.scope !18, !noalias !15
  tail call void @llvm.experimental.noalias.scope.decl(metadata !29)
  tail call void @llvm.experimental.noalias.scope.decl(metadata !32)
  %88 = add nuw nsw i32 %.041.i, 1
  %exitcond.not.i = icmp eq i32 %88, %2
  br i1 %exitcond.not.i, label %DoHorizontalFilter_SSE2.exit, label %.preheader.i25.i, !llvm.loop !36

DoHorizontalFilter_SSE2.exit:                     ; preds = %.preheader.i25.i, %PredictLineLeft_SSE2.exit38.loopexit.us54.i, %PredictLineLeft_SSE2.exit38.us.i, %PredictLineLeft_SSE2.exit.i
  ret void
}